
Allocating common symbols
Common symbol       size              file

FrameBufferInfo     0x28              ./object/gpu.o

Memory Configuration

Name             Origin             Length             Attributes
sys              0x00008000         0x00200000
usr              0x01000000         0x00100000
*default*        0x00000000         0xffffffff

Linker script and memory map

                0x00002000                STACK_SIZE = 0x2000

.text.init      0x00008000       0xa0
 *(.text.init)
 .text.init     0x00008000       0xa0 C:\Users\HP\AppData\Local\Temp\ccuo48sg.o
                0x00008000                _start
                0x00008024                _start_end
                0x00008068                reboot
                0x0000806c                halt
                0x00008070                GET32
                0x00008078                PUT32
                0x00008080                _enable_interrupts
                0x00008090                _disable_interrupts

.text           0x000080a0      0x614
 *(.text)
 .text          0x000080a0      0x218 ./object/gpu.o
                0x000080a0                gpu_Init_GPU
                0x00008168                gpu_SendMail
                0x00008204                gpu_RecMail
 .text          0x000082b8       0x20 ./object/main.o
                0x000082b8                os_main
 .text          0x000082d8       0x98 ./object/print.o
                0x000082d8                GetDefaultFontData
 .text          0x00008370       0x70 ./object/start.o
                0x00008370                _cstartup
 .text          0x000083e0      0x2d4 ./object/uart.o
                0x000083e0                notmain
                0x00008518                uart_putc
                0x00008564                uart_printstr
                0x000085c4                uart_init
 .text          0x000086b4        0x0 C:\Users\HP\AppData\Local\Temp\ccuo48sg.o

.glue_7         0x000086b4        0x0
 .glue_7        0x00000000        0x0 linker stubs

.glue_7t        0x000086b4        0x0
 .glue_7t       0x00000000        0x0 linker stubs

.vfp11_veneer   0x000086b4        0x0
 .vfp11_veneer  0x00000000        0x0 linker stubs

.v4_bx          0x000086b4        0x0
 .v4_bx         0x00000000        0x0 linker stubs

.iplt           0x000086b4        0x0
 .iplt          0x00000000        0x0 ./object/gpu.o

.data           0x000086b4        0x0
 *(.data)
 .data          0x000086b4        0x0 ./object/gpu.o
 .data          0x000086b4        0x0 ./object/main.o
 .data          0x000086b4        0x0 ./object/print.o
 .data          0x000086b4        0x0 ./object/start.o
 .data          0x000086b4        0x0 ./object/uart.o
 .data          0x000086b4        0x0 C:\Users\HP\AppData\Local\Temp\ccuo48sg.o

.igot.plt       0x000086b4        0x0
 .igot.plt      0x00000000        0x0 ./object/gpu.o

.rodata         0x000086b4     0x1848
                0x000086b4                . = ALIGN (0x4)
 *(.rodata)
 .rodata        0x000086b4     0x1848 ./object/print.o
 .rodata        0x00009efc        0x0 C:\Users\HP\AppData\Local\Temp\ccuo48sg.o
                0x00009efc                __bss_start = .
                0x00009efc                __bss_start__ = .

.rel.dyn        0x00009efc        0x0
 .rel.iplt      0x00000000        0x0 ./object/gpu.o

.bss            0x00009efc       0x28
 *(.bss .bss.*)
 .bss           0x00009efc        0x0 ./object/gpu.o
 .bss           0x00009efc        0x0 ./object/main.o
 .bss           0x00009efc        0x0 ./object/print.o
 .bss           0x00009efc        0x0 ./object/start.o
 .bss           0x00009efc        0x0 ./object/uart.o
 .bss           0x00009efc        0x0 C:\Users\HP\AppData\Local\Temp\ccuo48sg.o
                0x00009efc                . = ALIGN ((. != 0x0)?0x4:0x1)
 COMMON         0x00009efc       0x28 ./object/gpu.o
                0x00009efc                FrameBufferInfo
                0x00009f24                _bss_end__ = .
                0x00009f24                __bss_end__ = .
                0x00009f24                . = ALIGN (0x4)
                0x00009f24                _edata = .
                0x00009f24                PROVIDE (edata, .)
                0x00009f40                _KERNEL_HEAP = ALIGN (0x40)
LOAD ./object/gpu.o
LOAD ./object/main.o
LOAD ./object/print.o
LOAD ./object/start.o
LOAD ./object/uart.o
LOAD C:\Users\HP\AppData\Local\Temp\ccuo48sg.o
START GROUP
LOAD e:/arm-gcc/bin/../lib/gcc/arm-none-eabi/4.8.4/fpu\libgcc.a
LOAD e:/arm-gcc/bin/../lib/gcc/arm-none-eabi/4.8.4/../../../../arm-none-eabi/lib/fpu\libg.a
LOAD e:/arm-gcc/bin/../lib/gcc/arm-none-eabi/4.8.4/../../../../arm-none-eabi/lib/fpu\libc.a
END GROUP
OUTPUT(kernel.elf elf32-littlearm)

.debug_info     0x00000000      0x71e
 .debug_info    0x00000000      0x217 ./object/gpu.o
 .debug_info    0x00000217       0xc1 ./object/main.o
 .debug_info    0x000002d8      0x10a ./object/print.o
 .debug_info    0x000003e2       0xe5 ./object/start.o
 .debug_info    0x000004c7      0x218 ./object/uart.o
 .debug_info    0x000006df       0x3f C:\Users\HP\AppData\Local\Temp\ccuo48sg.o

.debug_abbrev   0x00000000      0x35a
 .debug_abbrev  0x00000000       0xdb ./object/gpu.o
 .debug_abbrev  0x000000db       0x8c ./object/main.o
 .debug_abbrev  0x00000167       0x7e ./object/print.o
 .debug_abbrev  0x000001e5       0x98 ./object/start.o
 .debug_abbrev  0x0000027d       0xc9 ./object/uart.o
 .debug_abbrev  0x00000346       0x14 C:\Users\HP\AppData\Local\Temp\ccuo48sg.o

.debug_aranges  0x00000000       0xc0
 .debug_aranges
                0x00000000       0x20 ./object/gpu.o
 .debug_aranges
                0x00000020       0x20 ./object/main.o
 .debug_aranges
                0x00000040       0x20 ./object/print.o
 .debug_aranges
                0x00000060       0x20 ./object/start.o
 .debug_aranges
                0x00000080       0x20 ./object/uart.o
 .debug_aranges
                0x000000a0       0x20 C:\Users\HP\AppData\Local\Temp\ccuo48sg.o

.debug_line     0x00000000      0x2b4
 .debug_line    0x00000000       0x93 ./object/gpu.o
 .debug_line    0x00000093       0x59 ./object/main.o
 .debug_line    0x000000ec       0x5d ./object/print.o
 .debug_line    0x00000149       0x5d ./object/start.o
 .debug_line    0x000001a6       0xa9 ./object/uart.o
 .debug_line    0x0000024f       0x65 C:\Users\HP\AppData\Local\Temp\ccuo48sg.o

.debug_str      0x00000000      0x3d7
 .debug_str     0x00000000      0x1b3 ./object/gpu.o
                                0x1d1 (size before relaxing)
 .debug_str     0x000001b3       0x21 ./object/main.o
                                0x122 (size before relaxing)
 .debug_str     0x000001d4       0x8c ./object/print.o
                                0x150 (size before relaxing)
 .debug_str     0x00000260       0x38 ./object/start.o
                                0x139 (size before relaxing)
 .debug_str     0x00000298      0x13f ./object/uart.o
                                0x248 (size before relaxing)

.comment        0x00000000       0x70
 .comment       0x00000000       0x70 ./object/gpu.o
                                 0x71 (size before relaxing)
 .comment       0x00000000       0x71 ./object/main.o
 .comment       0x00000000       0x71 ./object/print.o
 .comment       0x00000000       0x71 ./object/start.o
 .comment       0x00000000       0x71 ./object/uart.o

.ARM.attributes
                0x00000000       0x33
 .ARM.attributes
                0x00000000       0x35 ./object/gpu.o
 .ARM.attributes
                0x00000035       0x35 ./object/main.o
 .ARM.attributes
                0x0000006a       0x35 ./object/print.o
 .ARM.attributes
                0x0000009f       0x35 ./object/start.o
 .ARM.attributes
                0x000000d4       0x35 ./object/uart.o
 .ARM.attributes
                0x00000109       0x1f C:\Users\HP\AppData\Local\Temp\ccuo48sg.o

.debug_frame    0x00000000      0x15c
 .debug_frame   0x00000000       0x5c ./object/gpu.o
 .debug_frame   0x0000005c       0x2c ./object/main.o
 .debug_frame   0x00000088       0x28 ./object/print.o
 .debug_frame   0x000000b0       0x2c ./object/start.o
 .debug_frame   0x000000dc       0x80 ./object/uart.o
